target datalayout = "e-m:e-p270:32:32-p271:32:32-p272:64:64-i64:64-i128:128-f80:128-n8:16:32:64-S128"
target triple = "x86_64-pc-linux-gnu"

%struct.mbedtls_aria_context = type { i8, [17 x [4 x i32]] }

; Function Attrs: inlinehint mustprogress nounwind uwtable
define internal void @_ZL6aria_aPjS_S_S_(ptr noundef %0, ptr noundef %1, ptr noundef %2, ptr noundef %3) #6 {
  %5 = alloca ptr, align 8
  %6 = alloca ptr, align 8
  %7 = alloca ptr, align 8
  %8 = alloca ptr, align 8
  %9 = alloca i32, align 4
  %10 = alloca i32, align 4
  %11 = alloca i32, align 4
  store ptr %0, ptr %5, align 8, !tbaa !15
  store ptr %1, ptr %6, align 8, !tbaa !15
  store ptr %2, ptr %7, align 8, !tbaa !15
  store ptr %3, ptr %8, align 8, !tbaa !15
  call void @llvm.lifetime.start.p0(i64 4, ptr %9) #7
  call void @llvm.lifetime.start.p0(i64 4, ptr %10) #7
  call void @llvm.lifetime.start.p0(i64 4, ptr %11) #7
  %12 = load ptr, ptr %6, align 8, !tbaa !15
  %13 = load i32, ptr %12, align 4, !tbaa !10
  store i32 %13, ptr %9, align 4, !tbaa !10
  %14 = load ptr, ptr %5, align 8, !tbaa !15
  %15 = load i32, ptr %14, align 4, !tbaa !10
  %16 = load ptr, ptr %6, align 8, !tbaa !15
  store i32 %15, ptr %16, align 4, !tbaa !10
  %17 = load i32, ptr %9, align 4, !tbaa !10
  %18 = lshr i32 %17, 16
  %19 = load i32, ptr %9, align 4, !tbaa !10
  %20 = shl i32 %19, 16
  %21 = xor i32 %18, %20
  %22 = load ptr, ptr %5, align 8, !tbaa !15
  store i32 %21, ptr %22, align 4, !tbaa !10
  %23 = load ptr, ptr %8, align 8, !tbaa !15
  %24 = load i32, ptr %23, align 4, !tbaa !10
  %25 = lshr i32 %24, 16
  %26 = load ptr, ptr %8, align 8, !tbaa !15
  %27 = load i32, ptr %26, align 4, !tbaa !10
  %28 = shl i32 %27, 16
  %29 = xor i32 %25, %28
  store i32 %29, ptr %10, align 4, !tbaa !10
  %30 = load ptr, ptr %7, align 8, !tbaa !15
  %31 = load i32, ptr %30, align 4, !tbaa !10
  %32 = lshr i32 %31, 8
  %33 = and i32 %32, 16711935
  %34 = load ptr, ptr %7, align 8, !tbaa !15
  %35 = load i32, ptr %34, align 4, !tbaa !10
  %36 = and i32 %35, 16711935
  %37 = shl i32 %36, 8
  %38 = xor i32 %33, %37
  %39 = load ptr, ptr %8, align 8, !tbaa !15
  store i32 %38, ptr %39, align 4, !tbaa !10
  %40 = load i32, ptr %10, align 4, !tbaa !10
  %41 = lshr i32 %40, 8
  %42 = and i32 %41, 16711935
  %43 = load i32, ptr %10, align 4, !tbaa !10
  %44 = and i32 %43, 16711935
  %45 = shl i32 %44, 8
  %46 = xor i32 %42, %45
  %47 = load ptr, ptr %7, align 8, !tbaa !15
  store i32 %46, ptr %47, align 4, !tbaa !10
  %48 = load ptr, ptr %8, align 8, !tbaa !15
  %49 = load i32, ptr %48, align 4, !tbaa !10
  %50 = load i32, ptr %9, align 4, !tbaa !10
  %51 = xor i32 %50, %49
  store i32 %51, ptr %9, align 4, !tbaa !10
  %52 = load ptr, ptr %6, align 8, !tbaa !15
  %53 = load i32, ptr %52, align 4, !tbaa !10
  %54 = lshr i32 %53, 16
  %55 = load ptr, ptr %6, align 8, !tbaa !15
  %56 = load i32, ptr %55, align 4, !tbaa !10
  %57 = shl i32 %56, 16
  %58 = xor i32 %54, %57
  store i32 %58, ptr %11, align 4, !tbaa !10
  %59 = load i32, ptr %9, align 4, !tbaa !10
  %60 = lshr i32 %59, 8
  %61 = and i32 %60, 16711935
  %62 = load i32, ptr %9, align 4, !tbaa !10
  %63 = and i32 %62, 16711935
  %64 = shl i32 %63, 8
  %65 = xor i32 %61, %64
  %66 = load i32, ptr %11, align 4, !tbaa !10
  %67 = xor i32 %65, %66
  %68 = load ptr, ptr %7, align 8, !tbaa !15
  %69 = load i32, ptr %68, align 4, !tbaa !10
  %70 = xor i32 %67, %69
  store i32 %70, ptr %9, align 4, !tbaa !10
  %71 = load ptr, ptr %8, align 8, !tbaa !15
  %72 = load i32, ptr %71, align 4, !tbaa !10
  %73 = lshr i32 %72, 16
  %74 = load ptr, ptr %8, align 8, !tbaa !15
  %75 = load i32, ptr %74, align 4, !tbaa !10
  %76 = shl i32 %75, 16
  %77 = xor i32 %73, %76
  %78 = load i32, ptr %10, align 4, !tbaa !10
  %79 = xor i32 %78, %77
  store i32 %79, ptr %10, align 4, !tbaa !10
  %80 = load ptr, ptr %5, align 8, !tbaa !15
  %81 = load i32, ptr %80, align 4, !tbaa !10
  %82 = lshr i32 %81, 8
  %83 = and i32 %82, 16711935
  %84 = load ptr, ptr %5, align 8, !tbaa !15
  %85 = load i32, ptr %84, align 4, !tbaa !10
  %86 = and i32 %85, 16711935
  %87 = shl i32 %86, 8
  %88 = xor i32 %83, %87
  %89 = load i32, ptr %11, align 4, !tbaa !10
  %90 = xor i32 %89, %88
  store i32 %90, ptr %11, align 4, !tbaa !10
  %91 = load i32, ptr %9, align 4, !tbaa !10
  %92 = load i32, ptr %10, align 4, !tbaa !10
  %93 = xor i32 %91, %92
  %94 = load ptr, ptr %6, align 8, !tbaa !15
  %95 = load i32, ptr %94, align 4, !tbaa !10
  %96 = xor i32 %95, %93
  store i32 %96, ptr %94, align 4, !tbaa !10
  %97 = load i32, ptr %10, align 4, !tbaa !10
  %98 = lshr i32 %97, 16
  %99 = load i32, ptr %10, align 4, !tbaa !10
  %100 = shl i32 %99, 16
  %101 = xor i32 %98, %100
  %102 = load i32, ptr %9, align 4, !tbaa !10
  %103 = xor i32 %101, %102
  store i32 %103, ptr %10, align 4, !tbaa !10
  %104 = load i32, ptr %10, align 4, !tbaa !10
  %105 = lshr i32 %104, 8
  %106 = and i32 %105, 16711935
  %107 = load i32, ptr %10, align 4, !tbaa !10
  %108 = and i32 %107, 16711935
  %109 = shl i32 %108, 8
  %110 = xor i32 %106, %109
  %111 = load ptr, ptr %5, align 8, !tbaa !15
  %112 = load i32, ptr %111, align 4, !tbaa !10
  %113 = xor i32 %112, %110
  store i32 %113, ptr %111, align 4, !tbaa !10
  %114 = load i32, ptr %9, align 4, !tbaa !10
  %115 = lshr i32 %114, 16
  %116 = load i32, ptr %9, align 4, !tbaa !10
  %117 = shl i32 %116, 16
  %118 = xor i32 %115, %117
  store i32 %118, ptr %9, align 4, !tbaa !10
  %119 = load i32, ptr %9, align 4, !tbaa !10
  %120 = lshr i32 %119, 8
  %121 = and i32 %120, 16711935
  %122 = load i32, ptr %9, align 4, !tbaa !10
  %123 = and i32 %122, 16711935
  %124 = shl i32 %123, 8
  %125 = xor i32 %121, %124
  %126 = load i32, ptr %11, align 4, !tbaa !10
  %127 = xor i32 %125, %126
  %128 = load ptr, ptr %8, align 8, !tbaa !15
  %129 = load i32, ptr %128, align 4, !tbaa !10
  %130 = xor i32 %129, %127
  store i32 %130, ptr %128, align 4, !tbaa !10
  %131 = load i32, ptr %11, align 4, !tbaa !10
  %132 = lshr i32 %131, 16
  %133 = load i32, ptr %11, align 4, !tbaa !10
  %134 = shl i32 %133, 16
  %135 = xor i32 %132, %134
  store i32 %135, ptr %11, align 4, !tbaa !10
  %136 = load i32, ptr %11, align 4, !tbaa !10
  %137 = lshr i32 %136, 8
  %138 = and i32 %137, 16711935
  %139 = load i32, ptr %11, align 4, !tbaa !10
  %140 = and i32 %139, 16711935
  %141 = shl i32 %140, 8
  %142 = xor i32 %138, %141
  %143 = load i32, ptr %9, align 4, !tbaa !10
  %144 = xor i32 %142, %143
  %145 = load ptr, ptr %7, align 8, !tbaa !15
  %146 = load i32, ptr %145, align 4, !tbaa !10
  %147 = xor i32 %146, %144
  store i32 %147, ptr %145, align 4, !tbaa !10
  call void @llvm.lifetime.end.p0(i64 4, ptr %11) #7
  call void @llvm.lifetime.end.p0(i64 4, ptr %10) #7
  call void @llvm.lifetime.end.p0(i64 4, ptr %9) #7
  ret void
}

; Function Attrs: mustprogress uwtable
define hidden i32 @mbedtls_aria_setkey_dec(ptr noundef %0, ptr noundef %1, i32 noundef %2) #0 {
  %4 = alloca i32, align 4
  %5 = alloca ptr, align 8
  %6 = alloca ptr, align 8
  %7 = alloca i32, align 4
  %8 = alloca i32, align 4
  %9 = alloca i32, align 4
  %10 = alloca i32, align 4
  %11 = alloca i32, align 4
  %12 = alloca i32, align 4
  %13 = alloca i32, align 4
  store ptr %0, ptr %5, align 8, !tbaa !3
  store ptr %1, ptr %6, align 8, !tbaa !8
  store i32 %2, ptr %7, align 4, !tbaa !10
  call void @llvm.lifetime.start.p0(i64 4, ptr %8) #7
  call void @llvm.lifetime.start.p0(i64 4, ptr %9) #7
  call void @llvm.lifetime.start.p0(i64 4, ptr %10) #7
  call void @llvm.lifetime.start.p0(i64 4, ptr %11) #7
  br label %14

14:                                               ; preds = %3
  br label %15

15:                                               ; preds = %14
  br label %16

16:                                               ; preds = %15
  br label %17

17:                                               ; preds = %16
  br label %18

18:                                               ; preds = %17
  br label %19

19:                                               ; preds = %18
  %20 = load ptr, ptr %5, align 8, !tbaa !3
  %21 = load ptr, ptr %6, align 8, !tbaa !8
  %22 = load i32, ptr %7, align 4, !tbaa !10
  %23 = call i32 @mbedtls_aria_setkey_enc(ptr noundef %20, ptr noundef %21, i32 noundef %22)
  store i32 %23, ptr %11, align 4, !tbaa !10
  %24 = load i32, ptr %11, align 4, !tbaa !10
  %25 = icmp ne i32 %24, 0
  br i1 %25, label %26, label %28

26:                                               ; preds = %19
  %27 = load i32, ptr %11, align 4, !tbaa !10
  store i32 %27, ptr %4, align 4
  store i32 1, ptr %12, align 4
  br label %123

28:                                               ; preds = %19
  store i32 0, ptr %8, align 4, !tbaa !10
  %29 = load ptr, ptr %5, align 8, !tbaa !3
  %30 = getelementptr inbounds nuw %struct.mbedtls_aria_context, ptr %29, i32 0, i32 0
  %31 = load i8, ptr %30, align 4, !tbaa !13
  %32 = zext i8 %31 to i32
  store i32 %32, ptr %9, align 4, !tbaa !10
  br label %33

33:                                               ; preds = %81, %28
  %34 = load i32, ptr %8, align 4, !tbaa !10
  %35 = load i32, ptr %9, align 4, !tbaa !10
  %36 = icmp slt i32 %34, %35
  br i1 %36, label %37, label %86

37:                                               ; preds = %33
  store i32 0, ptr %10, align 4, !tbaa !10
  br label %38

38:                                               ; preds = %77, %37
  %39 = load i32, ptr %10, align 4, !tbaa !10
  %40 = icmp slt i32 %39, 4
  br i1 %40, label %41, label %80

41:                                               ; preds = %38
  call void @llvm.lifetime.start.p0(i64 4, ptr %13) #7
  %42 = load ptr, ptr %5, align 8, !tbaa !3
  %43 = getelementptr inbounds nuw %struct.mbedtls_aria_context, ptr %42, i32 0, i32 1
  %44 = load i32, ptr %8, align 4, !tbaa !10
  %45 = sext i32 %44 to i64
  %46 = getelementptr inbounds [17 x [4 x i32]], ptr %43, i64 0, i64 %45
  %47 = load i32, ptr %10, align 4, !tbaa !10
  %48 = sext i32 %47 to i64
  %49 = getelementptr inbounds [4 x i32], ptr %46, i64 0, i64 %48
  %50 = load i32, ptr %49, align 4, !tbaa !10
  store i32 %50, ptr %13, align 4, !tbaa !10
  %51 = load ptr, ptr %5, align 8, !tbaa !3
  %52 = getelementptr inbounds nuw %struct.mbedtls_aria_context, ptr %51, i32 0, i32 1
  %53 = load i32, ptr %9, align 4, !tbaa !10
  %54 = sext i32 %53 to i64
  %55 = getelementptr inbounds [17 x [4 x i32]], ptr %52, i64 0, i64 %54
  %56 = load i32, ptr %10, align 4, !tbaa !10
  %57 = sext i32 %56 to i64
  %58 = getelementptr inbounds [4 x i32], ptr %55, i64 0, i64 %57
  %59 = load i32, ptr %58, align 4, !tbaa !10
  %60 = load ptr, ptr %5, align 8, !tbaa !3
  %61 = getelementptr inbounds nuw %struct.mbedtls_aria_context, ptr %60, i32 0, i32 1
  %62 = load i32, ptr %8, align 4, !tbaa !10
  %63 = sext i32 %62 to i64
  %64 = getelementptr inbounds [17 x [4 x i32]], ptr %61, i64 0, i64 %63
  %65 = load i32, ptr %10, align 4, !tbaa !10
  %66 = sext i32 %65 to i64
  %67 = getelementptr inbounds [4 x i32], ptr %64, i64 0, i64 %66
  store i32 %59, ptr %67, align 4, !tbaa !10
  %68 = load i32, ptr %13, align 4, !tbaa !10
  %69 = load ptr, ptr %5, align 8, !tbaa !3
  %70 = getelementptr inbounds nuw %struct.mbedtls_aria_context, ptr %69, i32 0, i32 1
  %71 = load i32, ptr %9, align 4, !tbaa !10
  %72 = sext i32 %71 to i64
  %73 = getelementptr inbounds [17 x [4 x i32]], ptr %70, i64 0, i64 %72
  %74 = load i32, ptr %10, align 4, !tbaa !10
  %75 = sext i32 %74 to i64
  %76 = getelementptr inbounds [4 x i32], ptr %73, i64 0, i64 %75
  store i32 %68, ptr %76, align 4, !tbaa !10
  call void @llvm.lifetime.end.p0(i64 4, ptr %13) #7
  br label %77

77:                                               ; preds = %41
  %78 = load i32, ptr %10, align 4, !tbaa !10
  %79 = add nsw i32 %78, 1
  store i32 %79, ptr %10, align 4, !tbaa !10
  br label %38, !llvm.loop !20

80:                                               ; preds = %38
  br label %81

81:                                               ; preds = %80
  %82 = load i32, ptr %8, align 4, !tbaa !10
  %83 = add nsw i32 %82, 1
  store i32 %83, ptr %8, align 4, !tbaa !10
  %84 = load i32, ptr %9, align 4, !tbaa !10
  %85 = add nsw i32 %84, -1
  store i32 %85, ptr %9, align 4, !tbaa !10
  br label %33, !llvm.loop !21

86:                                               ; preds = %33
  store i32 1, ptr %8, align 4, !tbaa !10
  br label %87

87:                                               ; preds = %119, %86
  %88 = load i32, ptr %8, align 4, !tbaa !10
  %89 = load ptr, ptr %5, align 8, !tbaa !3
  %90 = getelementptr inbounds nuw %struct.mbedtls_aria_context, ptr %89, i32 0, i32 0
  %91 = load i8, ptr %90, align 4, !tbaa !13
  %92 = zext i8 %91 to i32
  %93 = icmp slt i32 %88, %92
  br i1 %93, label %94, label %122

94:                                               ; preds = %87
  %95 = load ptr, ptr %5, align 8, !tbaa !3
  %96 = getelementptr inbounds nuw %struct.mbedtls_aria_context, ptr %95, i32 0, i32 1
  %97 = load i32, ptr %8, align 4, !tbaa !10
  %98 = sext i32 %97 to i64
  %99 = getelementptr inbounds [17 x [4 x i32]], ptr %96, i64 0, i64 %98
  %100 = getelementptr inbounds [4 x i32], ptr %99, i64 0, i64 0
  %101 = load ptr, ptr %5, align 8, !tbaa !3
  %102 = getelementptr inbounds nuw %struct.mbedtls_aria_context, ptr %101, i32 0, i32 1
  %103 = load i32, ptr %8, align 4, !tbaa !10
  %104 = sext i32 %103 to i64
  %105 = getelementptr inbounds [17 x [4 x i32]], ptr %102, i64 0, i64 %104
  %106 = getelementptr inbounds [4 x i32], ptr %105, i64 0, i64 1
  %107 = load ptr, ptr %5, align 8, !tbaa !3
  %108 = getelementptr inbounds nuw %struct.mbedtls_aria_context, ptr %107, i32 0, i32 1
  %109 = load i32, ptr %8, align 4, !tbaa !10
  %110 = sext i32 %109 to i64
  %111 = getelementptr inbounds [17 x [4 x i32]], ptr %108, i64 0, i64 %110
  %112 = getelementptr inbounds [4 x i32], ptr %111, i64 0, i64 2
  %113 = load ptr, ptr %5, align 8, !tbaa !3
  %114 = getelementptr inbounds nuw %struct.mbedtls_aria_context, ptr %113, i32 0, i32 1
  %115 = load i32, ptr %8, align 4, !tbaa !10
  %116 = sext i32 %115 to i64
  %117 = getelementptr inbounds [17 x [4 x i32]], ptr %114, i64 0, i64 %116
  %118 = getelementptr inbounds [4 x i32], ptr %117, i64 0, i64 3
  call void @_ZL6aria_aPjS_S_S_(ptr noundef %100, ptr noundef %106, ptr noundef %112, ptr noundef %118)
  br label %119

119:                                              ; preds = %94
  %120 = load i32, ptr %8, align 4, !tbaa !10
  %121 = add nsw i32 %120, 1
  store i32 %121, ptr %8, align 4, !tbaa !10
  br label %87, !llvm.loop !22

122:                                              ; preds = %87
  store i32 0, ptr %4, align 4
  store i32 1, ptr %12, align 4
  br label %123

123:                                              ; preds = %122, %26
  call void @llvm.lifetime.end.p0(i64 4, ptr %11) #7
  call void @llvm.lifetime.end.p0(i64 4, ptr %10) #7
  call void @llvm.lifetime.end.p0(i64 4, ptr %9) #7
  call void @llvm.lifetime.end.p0(i64 4, ptr %8) #7
  %124 = load i32, ptr %4, align 4
  ret i32 %124
}